target datalayout = "e-m:e-p270:32:32-p271:32:32-p272:64:64-i64:64-i128:128-f80:128-n8:16:32:64-S128"
target triple = "x86_64-pc-linux-gnu"

%"struct.std::array" = type { [2 x i64] }
%"class.rocksdb::clock_cache::BaseClockTable.base" = type { %"class.rocksdb::RelaxedAtomic", %"class.rocksdb::RelaxedAtomic", %"class.rocksdb::RelaxedAtomic", [40 x i8], %"class.rocksdb::AcqRelAtomic", %"class.rocksdb::AcqRelAtomic", %"class.rocksdb::AcqRelAtomic", [40 x i8], i32, ptr, ptr, ptr }
%"class.rocksdb::AcqRelAtomic" = type { %"class.rocksdb::RelaxedAtomic" }
%"class.rocksdb::RelaxedAtomic" = type { %"struct.std::atomic" }
%"struct.std::atomic" = type { %"struct.std::__atomic_base" }
%"struct.std::__atomic_base" = type { i64 }
%"struct.rocksdb::clock_cache::ClockHandleBasicData" = type { ptr, ptr, %"struct.std::array", i64 }
%"class.rocksdb::clock_cache::BaseClockTable" = type { %"class.rocksdb::RelaxedAtomic", %"class.rocksdb::RelaxedAtomic", %"class.rocksdb::RelaxedAtomic", [40 x i8], %"class.rocksdb::AcqRelAtomic", %"class.rocksdb::AcqRelAtomic", %"class.rocksdb::AcqRelAtomic", [40 x i8], i32, ptr, ptr, ptr, [32 x i8] }
%"struct.rocksdb::clock_cache::ClockHandle" = type { %"struct.rocksdb::clock_cache::ClockHandleBasicData", %"class.rocksdb::AcqRelAtomic" }
%"class.rocksdb::clock_cache::AutoHyperClockTable" = type { %"class.rocksdb::clock_cache::BaseClockTable.base", %"class.rocksdb::TypedMemMapping", %"class.rocksdb::AcqRelAtomic", %"class.rocksdb::RelaxedAtomic", %"class.rocksdb::RelaxedAtomic", %"class.rocksdb::RelaxedAtomic", [48 x i8] }
%"class.rocksdb::TypedMemMapping" = type { %"class.rocksdb::MemMapping" }
%"class.rocksdb::MemMapping" = type { ptr, i64 }
%"struct.rocksdb::clock_cache::AutoHyperClockTable::HandleImpl" = type { %"struct.rocksdb::clock_cache::ClockHandle", %"class.rocksdb::AcqRelAtomic", %"class.rocksdb::AcqRelAtomic" }
%"struct.rocksdb::Cache::CacheItemHelper" = type { ptr, ptr, ptr, ptr, i32, ptr }

; Function Attrs: inlinehint mustprogress nounwind uwtable
define linkonce_odr noundef i32 @_ZN7rocksdb10BitwiseAndImiEENSt11conditionalIXltstT_stT0_ES2_S3_E4typeES2_S3_(i64 noundef %0, i32 noundef %1) #3 comdat {
  %3 = alloca i64, align 8
  %4 = alloca i32, align 4
  store i64 %0, ptr %3, align 8, !tbaa !9
  store i32 %1, ptr %4, align 4, !tbaa !34
  %5 = load i64, ptr %3, align 8, !tbaa !9
  %6 = load i32, ptr %4, align 4, !tbaa !34
  %7 = sext i32 %6 to i64
  %8 = and i64 %5, %7
  %9 = trunc i64 %8 to i32
  ret i32 %9
}

; Function Attrs: mustprogress nounwind uwtable
define linkonce_odr noundef i32 @_ZStanSt12memory_orderSt23__memory_order_modifier(i32 noundef %0, i32 noundef %1) #1 comdat {
  %3 = alloca i32, align 4
  %4 = alloca i32, align 4
  store i32 %0, ptr %3, align 4, !tbaa !393
  store i32 %1, ptr %4, align 4, !tbaa !486
  %5 = load i32, ptr %3, align 4, !tbaa !393
  %6 = load i32, ptr %4, align 4, !tbaa !486
  %7 = and i32 %5, %6
  ret i32 %7
}

; Function Attrs: inlinehint mustprogress nounwind uwtable
define linkonce_odr noundef ptr @_ZNK7rocksdb10MemMapping3GetEv(ptr noundef nonnull align 8 dereferenceable(16) %0) #3 comdat align 2 {
  %2 = alloca ptr, align 8
  store ptr %0, ptr %2, align 8, !tbaa !232
  %3 = load ptr, ptr %2, align 8
  %4 = getelementptr inbounds nuw %"class.rocksdb::MemMapping", ptr %3, i32 0, i32 0
  %5 = load ptr, ptr %4, align 8, !tbaa !603
  ret ptr %5
}

; Function Attrs: inlinehint mustprogress uwtable
define internal noundef i32 @_ZN7rocksdb11clock_cache12_GLOBAL__N_120LengthInfoToMinShiftEm(i64 noundef %0) #2 {
  %2 = alloca i64, align 8
  %3 = alloca i32, align 4
  store i64 %0, ptr %2, align 8, !tbaa !9
  call void @llvm.lifetime.start.p0(i64 4, ptr %3) #19
  %4 = load i64, ptr %2, align 8, !tbaa !9
  %5 = call noundef i32 @_ZN7rocksdb10BitwiseAndImiEENSt11conditionalIXltstT_stT0_ES2_S3_E4typeES2_S3_(i64 noundef %4, i32 noundef 255)
  store i32 %5, ptr %3, align 4, !tbaa !34
  %6 = load i32, ptr %3, align 4, !tbaa !34
  call void @llvm.lifetime.end.p0(i64 4, ptr %3) #19
  ret i32 %6
}

; Function Attrs: inlinehint mustprogress nounwind uwtable
define internal noundef i64 @_ZN7rocksdb11clock_cache12_GLOBAL__N_121LengthInfoToThresholdEm(i64 noundef %0) #3 {
  %2 = alloca i64, align 8
  store i64 %0, ptr %2, align 8, !tbaa !9
  %3 = load i64, ptr %2, align 8, !tbaa !9
  %4 = lshr i64 %3, 8
  ret i64 %4
}

; Function Attrs: alwaysinline mustprogress nounwind uwtable
define linkonce_odr noundef i64 @_ZNKSt13__atomic_baseImE4loadESt12memory_order(ptr noundef nonnull align 8 dereferenceable(8) %0, i32 noundef %1) #13 comdat align 2 personality ptr @__gxx_personality_v0 {
  %3 = alloca ptr, align 8
  %4 = alloca i32, align 4
  %5 = alloca i32, align 4
  %6 = alloca i64, align 8
  store ptr %0, ptr %3, align 8, !tbaa !391
  store i32 %1, ptr %4, align 4, !tbaa !393
  %7 = load ptr, ptr %3, align 8
  call void @llvm.lifetime.start.p0(i64 4, ptr %5) #19
  %8 = load i32, ptr %4, align 4, !tbaa !393
  %9 = invoke noundef i32 @_ZStanSt12memory_orderSt23__memory_order_modifier(i32 noundef %8, i32 noundef 65535)
          to label %10 unwind label %27

10:                                               ; preds = %2
  store i32 %9, ptr %5, align 4, !tbaa !393
  br label %11

11:                                               ; preds = %10
  br label %12

12:                                               ; preds = %11
  br label %13

13:                                               ; preds = %12
  br label %14

14:                                               ; preds = %13
  br label %15

15:                                               ; preds = %14
  br label %16

16:                                               ; preds = %15
  %17 = getelementptr inbounds nuw %"struct.std::__atomic_base", ptr %7, i32 0, i32 0
  %18 = load i32, ptr %4, align 4, !tbaa !393
  switch i32 %18, label %19 [
    i32 1, label %21
    i32 2, label %21
    i32 5, label %23
  ]

19:                                               ; preds = %16
  %20 = load atomic i64, ptr %17 monotonic, align 8
  store i64 %20, ptr %6, align 8
  br label %25

21:                                               ; preds = %16, %16
  %22 = load atomic i64, ptr %17 acquire, align 8
  store i64 %22, ptr %6, align 8
  br label %25

23:                                               ; preds = %16
  %24 = load atomic i64, ptr %17 seq_cst, align 8
  store i64 %24, ptr %6, align 8
  br label %25

25:                                               ; preds = %23, %21, %19
  %26 = load i64, ptr %6, align 8, !tbaa !9
  call void @llvm.lifetime.end.p0(i64 4, ptr %5) #19
  ret i64 %26

27:                                               ; preds = %2
  %28 = landingpad { ptr, i32 }
          catch ptr null
  %29 = extractvalue { ptr, i32 } %28, 0
  call void @__clang_call_terminate(ptr %29) #20
  unreachable
}

; Function Attrs: inlinehint mustprogress uwtable
define linkonce_odr noundef ptr @_ZNK7rocksdb15TypedMemMappingINS_11clock_cache19AutoHyperClockTable10HandleImplEE3GetEv(ptr noundef nonnull align 8 dereferenceable(16) %0) #2 comdat align 2 {
  %2 = alloca ptr, align 8
  store ptr %0, ptr %2, align 8, !tbaa !230
  %3 = load ptr, ptr %2, align 8
  %4 = call noundef ptr @_ZNK7rocksdb10MemMapping3GetEv(ptr noundef nonnull align 8 dereferenceable(16) %3)
  ret ptr %4
}

; Function Attrs: inlinehint mustprogress nounwind uwtable
define linkonce_odr noundef i64 @_ZNK7rocksdb10MemMapping6LengthEv(ptr noundef nonnull align 8 dereferenceable(16) %0) #3 comdat align 2 {
  %2 = alloca ptr, align 8
  store ptr %0, ptr %2, align 8, !tbaa !232
  %3 = load ptr, ptr %2, align 8
  %4 = getelementptr inbounds nuw %"class.rocksdb::MemMapping", ptr %3, i32 0, i32 1
  %5 = load i64, ptr %4, align 8, !tbaa !601
  ret i64 %5
}

; Function Attrs: inlinehint mustprogress uwtable
define internal noundef i64 @_ZN7rocksdb11clock_cache12_GLOBAL__N_122LengthInfoToUsedLengthEm(i64 noundef %0) #2 {
  %2 = alloca i64, align 8
  %3 = alloca i64, align 8
  %4 = alloca i32, align 4
  %5 = alloca i64, align 8
  store i64 %0, ptr %2, align 8, !tbaa !9
  call void @llvm.lifetime.start.p0(i64 8, ptr %3) #19
  %6 = load i64, ptr %2, align 8, !tbaa !9
  %7 = call noundef i64 @_ZN7rocksdb11clock_cache12_GLOBAL__N_121LengthInfoToThresholdEm(i64 noundef %6)
  store i64 %7, ptr %3, align 8, !tbaa !9
  call void @llvm.lifetime.start.p0(i64 4, ptr %4) #19
  %8 = load i64, ptr %2, align 8, !tbaa !9
  %9 = call noundef i32 @_ZN7rocksdb11clock_cache12_GLOBAL__N_120LengthInfoToMinShiftEm(i64 noundef %8)
  store i32 %9, ptr %4, align 4, !tbaa !34
  call void @llvm.lifetime.start.p0(i64 8, ptr %5) #19
  %10 = load i32, ptr %4, align 4, !tbaa !34
  %11 = zext i32 %10 to i64
  %12 = shl i64 1, %11
  %13 = load i64, ptr %3, align 8, !tbaa !9
  %14 = add i64 %12, %13
  store i64 %14, ptr %5, align 8, !tbaa !9
  %15 = load i64, ptr %5, align 8, !tbaa !9
  call void @llvm.lifetime.end.p0(i64 8, ptr %5) #19
  call void @llvm.lifetime.end.p0(i64 4, ptr %4) #19
  call void @llvm.lifetime.end.p0(i64 8, ptr %3) #19
  ret i64 %15
}

; Function Attrs: mustprogress nounwind uwtable
define linkonce_odr noundef i64 @_ZNK7rocksdb12AcqRelAtomicImE4LoadEv(ptr noundef nonnull align 8 dereferenceable(8) %0) #1 comdat align 2 {
  %2 = alloca ptr, align 8
  store ptr %0, ptr %2, align 8, !tbaa !148
  %3 = load ptr, ptr %2, align 8
  %4 = getelementptr inbounds nuw %"class.rocksdb::RelaxedAtomic", ptr %3, i32 0, i32 0
  %5 = call noundef i64 @_ZNKSt13__atomic_baseImE4loadESt12memory_order(ptr noundef nonnull align 8 dereferenceable(8) %4, i32 noundef 2) #19
  ret i64 %5
}

; Function Attrs: mustprogress uwtable
define void @_ZNK7rocksdb11clock_cache20ClockHandleBasicData8FreeDataEPNS_15MemoryAllocatorE(ptr noundef nonnull align 8 dereferenceable(40) %0, ptr noundef %1) #0 align 2 {
  %3 = alloca ptr, align 8
  %4 = alloca ptr, align 8
  store ptr %0, ptr %3, align 8, !tbaa !63
  store ptr %1, ptr %4, align 8, !tbaa !15
  %5 = load ptr, ptr %3, align 8
  %6 = getelementptr inbounds nuw %"struct.rocksdb::clock_cache::ClockHandleBasicData", ptr %5, i32 0, i32 1
  %7 = load ptr, ptr %6, align 8, !tbaa !59
  %8 = getelementptr inbounds nuw %"struct.rocksdb::Cache::CacheItemHelper", ptr %7, i32 0, i32 0
  %9 = load ptr, ptr %8, align 8, !tbaa !136
  %10 = icmp ne ptr %9, null
  br i1 %10, label %11, label %19

11:                                               ; preds = %2
  %12 = getelementptr inbounds nuw %"struct.rocksdb::clock_cache::ClockHandleBasicData", ptr %5, i32 0, i32 1
  %13 = load ptr, ptr %12, align 8, !tbaa !59
  %14 = getelementptr inbounds nuw %"struct.rocksdb::Cache::CacheItemHelper", ptr %13, i32 0, i32 0
  %15 = load ptr, ptr %14, align 8, !tbaa !136
  %16 = getelementptr inbounds nuw %"struct.rocksdb::clock_cache::ClockHandleBasicData", ptr %5, i32 0, i32 0
  %17 = load ptr, ptr %16, align 8, !tbaa !56
  %18 = load ptr, ptr %4, align 8, !tbaa !15
  call void %15(ptr noundef %17, ptr noundef %18)
  br label %19

19:                                               ; preds = %11, %2
  ret void
}

; Function Attrs: mustprogress nounwind uwtable
define linkonce_odr noundef i64 @_ZNK7rocksdb13RelaxedAtomicImE11LoadRelaxedEv(ptr noundef nonnull align 8 dereferenceable(8) %0) #1 comdat align 2 {
  %2 = alloca ptr, align 8
  store ptr %0, ptr %2, align 8, !tbaa !32
  %3 = load ptr, ptr %2, align 8
  %4 = getelementptr inbounds nuw %"class.rocksdb::RelaxedAtomic", ptr %3, i32 0, i32 0
  %5 = call noundef i64 @_ZNKSt13__atomic_baseImE4loadESt12memory_order(ptr noundef nonnull align 8 dereferenceable(8) %4, i32 noundef 0) #19
  ret i64 %5
}

; Function Attrs: inlinehint mustprogress uwtable
define linkonce_odr noundef nonnull align 64 dereferenceable(64) ptr @_ZNK7rocksdb15TypedMemMappingINS_11clock_cache19AutoHyperClockTable10HandleImplEEixEm(ptr noundef nonnull align 8 dereferenceable(16) %0, i64 noundef %1) #2 comdat align 2 {
  %3 = alloca ptr, align 8
  %4 = alloca i64, align 8
  store ptr %0, ptr %3, align 8, !tbaa !230
  store i64 %1, ptr %4, align 8, !tbaa !9
  %5 = load ptr, ptr %3, align 8
  %6 = call noundef ptr @_ZNK7rocksdb15TypedMemMappingINS_11clock_cache19AutoHyperClockTable10HandleImplEE3GetEv(ptr noundef nonnull align 8 dereferenceable(16) %5)
  %7 = load i64, ptr %4, align 8, !tbaa !9
  %8 = getelementptr inbounds nuw %"struct.rocksdb::clock_cache::AutoHyperClockTable::HandleImpl", ptr %6, i64 %7
  ret ptr %8
}

; Function Attrs: inlinehint mustprogress uwtable
define linkonce_odr noundef i64 @_ZNK7rocksdb15TypedMemMappingINS_11clock_cache19AutoHyperClockTable10HandleImplEE5CountEv(ptr noundef nonnull align 8 dereferenceable(16) %0) #2 comdat align 2 {
  %2 = alloca ptr, align 8
  store ptr %0, ptr %2, align 8, !tbaa !230
  %3 = load ptr, ptr %2, align 8
  %4 = call noundef i64 @_ZNK7rocksdb10MemMapping6LengthEv(ptr noundef nonnull align 8 dereferenceable(16) %3)
  %5 = udiv i64 %4, 64
  ret i64 %5
}

; Function Attrs: mustprogress uwtable
define noundef i64 @_ZNK7rocksdb11clock_cache19AutoHyperClockTable12GetTableSizeEv(ptr noundef nonnull align 64 dereferenceable(208) %0) #0 align 2 {
  %2 = alloca ptr, align 8
  store ptr %0, ptr %2, align 8, !tbaa !121
  %3 = load ptr, ptr %2, align 8
  %4 = getelementptr inbounds nuw %"class.rocksdb::clock_cache::AutoHyperClockTable", ptr %3, i32 0, i32 2
  %5 = call noundef i64 @_ZNK7rocksdb12AcqRelAtomicImE4LoadEv(ptr noundef nonnull align 8 dereferenceable(8) %4)
  %6 = call noundef i64 @_ZN7rocksdb11clock_cache12_GLOBAL__N_122LengthInfoToUsedLengthEm(i64 noundef %5)
  ret i64 %6
}

; Function Attrs: mustprogress nounwind uwtable
define void @_ZN7rocksdb11clock_cache19AutoHyperClockTableD2Ev(ptr noundef nonnull align 64 dereferenceable(208) %0) unnamed_addr #1 align 2 personality ptr @__gxx_personality_v0 {
  %2 = alloca ptr, align 8
  %3 = alloca i64, align 8
  %4 = alloca i64, align 8
  %5 = alloca ptr, align 8
  store ptr %0, ptr %2, align 8, !tbaa !121
  %6 = load ptr, ptr %2, align 8
  call void @llvm.lifetime.start.p0(i64 8, ptr %3) #19
  %7 = invoke noundef i64 @_ZNK7rocksdb11clock_cache19AutoHyperClockTable12GetTableSizeEv(ptr noundef nonnull align 64 dereferenceable(208) %6)
          to label %8 unwind label %57

8:                                                ; preds = %1
  store i64 %7, ptr %3, align 8, !tbaa !9
  br label %9

9:                                                ; preds = %26, %8
  %10 = load i64, ptr %3, align 8, !tbaa !9
  %11 = getelementptr inbounds nuw %"class.rocksdb::clock_cache::AutoHyperClockTable", ptr %6, i32 0, i32 1
  %12 = invoke noundef i64 @_ZNK7rocksdb15TypedMemMappingINS_11clock_cache19AutoHyperClockTable10HandleImplEE5CountEv(ptr noundef nonnull align 8 dereferenceable(16) %11)
          to label %13 unwind label %57

13:                                               ; preds = %9
  %14 = icmp ult i64 %10, %12
  br i1 %14, label %15, label %24

15:                                               ; preds = %13
  %16 = getelementptr inbounds nuw %"class.rocksdb::clock_cache::AutoHyperClockTable", ptr %6, i32 0, i32 1
  %17 = load i64, ptr %3, align 8, !tbaa !9
  %18 = invoke noundef nonnull align 64 dereferenceable(64) ptr @_ZNK7rocksdb15TypedMemMappingINS_11clock_cache19AutoHyperClockTable10HandleImplEEixEm(ptr noundef nonnull align 8 dereferenceable(16) %16, i64 noundef %17)
          to label %19 unwind label %57

19:                                               ; preds = %15
  %20 = getelementptr inbounds nuw %"struct.rocksdb::clock_cache::AutoHyperClockTable::HandleImpl", ptr %18, i32 0, i32 1
  %21 = invoke noundef i64 @_ZNK7rocksdb13RelaxedAtomicImE11LoadRelaxedEv(ptr noundef nonnull align 8 dereferenceable(8) %20)
          to label %22 unwind label %57

22:                                               ; preds = %19
  %23 = icmp ne i64 %21, 0
  br label %24

24:                                               ; preds = %22, %13
  %25 = phi i1 [ false, %13 ], [ %23, %22 ]
  br i1 %25, label %26, label %29

26:                                               ; preds = %24
  %27 = load i64, ptr %3, align 8, !tbaa !9
  %28 = add i64 %27, 1
  store i64 %28, ptr %3, align 8, !tbaa !9
  br label %9, !llvm.loop !234

29:                                               ; preds = %24
  call void @llvm.lifetime.start.p0(i64 8, ptr %4) #19
  store i64 0, ptr %4, align 8, !tbaa !9
  br label %30

30:                                               ; preds = %52, %29
  %31 = load i64, ptr %4, align 8, !tbaa !9
  %32 = load i64, ptr %3, align 8, !tbaa !9
  %33 = icmp ult i64 %31, %32
  br i1 %33, label %35, label %34

34:                                               ; preds = %30
  call void @llvm.lifetime.end.p0(i64 8, ptr %4) #19
  br label %55

35:                                               ; preds = %30
  call void @llvm.lifetime.start.p0(i64 8, ptr %5) #19
  %36 = getelementptr inbounds nuw %"class.rocksdb::clock_cache::AutoHyperClockTable", ptr %6, i32 0, i32 1
  %37 = load i64, ptr %4, align 8, !tbaa !9
  %38 = invoke noundef nonnull align 64 dereferenceable(64) ptr @_ZNK7rocksdb15TypedMemMappingINS_11clock_cache19AutoHyperClockTable10HandleImplEEixEm(ptr noundef nonnull align 8 dereferenceable(16) %36, i64 noundef %37)
          to label %39 unwind label %57

39:                                               ; preds = %35
  store ptr %38, ptr %5, align 8, !tbaa !123
  %40 = load ptr, ptr %5, align 8, !tbaa !123
  %41 = getelementptr inbounds nuw %"struct.rocksdb::clock_cache::ClockHandle", ptr %40, i32 0, i32 1
  %42 = invoke noundef i64 @_ZNK7rocksdb13RelaxedAtomicImE11LoadRelaxedEv(ptr noundef nonnull align 8 dereferenceable(8) %41)
          to label %43 unwind label %57

43:                                               ; preds = %39
  %44 = lshr i64 %42, 61
  switch i64 %44, label %50 [
    i64 0, label %51
    i64 6, label %45
    i64 7, label %45
  ]

45:                                               ; preds = %43, %43
  %46 = load ptr, ptr %5, align 8, !tbaa !123
  %47 = getelementptr inbounds nuw %"class.rocksdb::clock_cache::BaseClockTable", ptr %6, i32 0, i32 9
  %48 = load ptr, ptr %47, align 8, !tbaa !69
  invoke void @_ZNK7rocksdb11clock_cache20ClockHandleBasicData8FreeDataEPNS_15MemoryAllocatorE(ptr noundef nonnull align 8 dereferenceable(40) %46, ptr noundef %48)
          to label %49 unwind label %57

49:                                               ; preds = %45
  br label %51

50:                                               ; preds = %43
  br label %51

51:                                               ; preds = %50, %49, %43
  call void @llvm.lifetime.end.p0(i64 8, ptr %5) #19
  br label %52

52:                                               ; preds = %51
  %53 = load i64, ptr %4, align 8, !tbaa !9
  %54 = add i64 %53, 1
  store i64 %54, ptr %4, align 8, !tbaa !9
  br label %30, !llvm.loop !235

55:                                               ; preds = %34
  call void @llvm.lifetime.end.p0(i64 8, ptr %3) #19
  %56 = getelementptr inbounds nuw %"class.rocksdb::clock_cache::AutoHyperClockTable", ptr %6, i32 0, i32 1
  call void @_ZN7rocksdb10MemMappingD2Ev(ptr noundef nonnull align 8 dereferenceable(16) %56) #19
  ret void

57:                                               ; preds = %45, %39, %35, %19, %15, %9, %1
  %58 = landingpad { ptr, i32 }
          catch ptr null
  %59 = extractvalue { ptr, i32 } %58, 0
  call void @__clang_call_terminate(ptr %59) #20
  unreachable
}