; Function Attrs: mustprogress nounwind uwtable
define void @_ZN7rocksdb11clock_cache19AutoHyperClockTableD2Ev(ptr noundef nonnull align 64 dereferenceable(208) %0) unnamed_addr #8 align 2 personality ptr @__gxx_personality_v0 {
  %2 = getelementptr inbounds nuw i8, ptr %0, i64 176
  %3 = load atomic i64, ptr %2 acquire, align 16
  %4 = lshr i64 %3, 8
  %5 = and i64 %3, 255
  %6 = shl nuw i64 1, %5
  %7 = add nuw i64 %6, %4
  %8 = getelementptr inbounds nuw i8, ptr %0, i64 160
  %9 = getelementptr inbounds nuw i8, ptr %0, i64 168
  %10 = load i64, ptr %9, align 8, !tbaa !214
  %11 = lshr i64 %10, 6
  %12 = icmp ult i64 %7, %11
  br i1 %12, label %.lr.ph, label %.critedge

.lr.ph:                                           ; preds = %1
  %13 = load ptr, ptr %8, align 32, !tbaa !137
  br label %14

14:                                               ; preds = %.lr.ph, %17
  %.010 = phi i64 [ %7, %.lr.ph ], [ %18, %17 ]
  %15 = getelementptr inbounds nuw %"struct.rocksdb::clock_cache::AutoHyperClockTable::HandleImpl", ptr %13, i64 %.010, i32 1
  %16 = load atomic i64, ptr %15 monotonic, align 8
  %.not = icmp eq i64 %16, 0
  br i1 %.not, label %.critedge, label %17

17:                                               ; preds = %14
  %18 = add nuw nsw i64 %.010, 1
  %19 = icmp ult i64 %18, %11
  br i1 %19, label %14, label %.critedge, !llvm.loop !215

.critedge:                                        ; preds = %14, %17, %1
  %.0.lcssa = phi i64 [ %7, %1 ], [ %18, %17 ], [ %.010, %14 ]
  %20 = getelementptr inbounds nuw i8, ptr %0, i64 136
  %umax = tail call i64 @llvm.umax.i64(i64 %.0.lcssa, i64 1)
  br label %22

21:                                               ; preds = %_ZNK7rocksdb11clock_cache20ClockHandleBasicData8FreeDataEPNS_15MemoryAllocatorE.exit
  tail call void @_ZN7rocksdb10MemMappingD2Ev(ptr noundef nonnull align 8 dereferenceable(16) %8) #31
  ret void

22:                                               ; preds = %.critedge, %_ZNK7rocksdb11clock_cache20ClockHandleBasicData8FreeDataEPNS_15MemoryAllocatorE.exit
  %.0915 = phi i64 [ 0, %.critedge ], [ %34, %_ZNK7rocksdb11clock_cache20ClockHandleBasicData8FreeDataEPNS_15MemoryAllocatorE.exit ]
  %23 = load ptr, ptr %8, align 32, !tbaa !137
  %24 = getelementptr inbounds nuw %"struct.rocksdb::clock_cache::AutoHyperClockTable::HandleImpl", ptr %23, i64 %.0915
  %25 = getelementptr inbounds nuw i8, ptr %24, i64 40
  %26 = load atomic i64, ptr %25 monotonic, align 8
  %switch = icmp ugt i64 %26, -4611686018427387905
  br i1 %switch, label %27, label %_ZNK7rocksdb11clock_cache20ClockHandleBasicData8FreeDataEPNS_15MemoryAllocatorE.exit

27:                                               ; preds = %22
  %28 = getelementptr inbounds nuw i8, ptr %24, i64 8
  %29 = load ptr, ptr %28, align 8, !tbaa !34
  %30 = load ptr, ptr %29, align 8, !tbaa !73
  %.not.i = icmp eq ptr %30, null
  br i1 %.not.i, label %_ZNK7rocksdb11clock_cache20ClockHandleBasicData8FreeDataEPNS_15MemoryAllocatorE.exit, label %31

31:                                               ; preds = %27
  %32 = load ptr, ptr %20, align 8, !tbaa !76
  %33 = load ptr, ptr %24, align 8, !tbaa !30
  invoke void %30(ptr noundef %33, ptr noundef %32)
          to label %_ZNK7rocksdb11clock_cache20ClockHandleBasicData8FreeDataEPNS_15MemoryAllocatorE.exit unwind label %35

_ZNK7rocksdb11clock_cache20ClockHandleBasicData8FreeDataEPNS_15MemoryAllocatorE.exit: ; preds = %27, %31, %22
  %34 = add nuw i64 %.0915, 1
  %exitcond.not = icmp eq i64 %34, %umax
  br i1 %exitcond.not, label %21, label %22, !llvm.loop !216

35:                                               ; preds = %31
  %36 = landingpad { ptr, i32 }
          catch ptr null
  %37 = extractvalue { ptr, i32 } %36, 0
  tail call void @__clang_call_terminate(ptr %37) #34
  unreachable
}